target datalayout = "e-m:e-p270:32:32-p271:32:32-p272:64:64-i64:64-i128:128-f80:128-n8:16:32:64-S128"
target triple = "x86_64-unknown-linux-gnu"

%"struct.std::_Rb_tree_header" = type { %"struct.std::_Rb_tree_node_base", i64 }
%"struct.std::_Rb_tree_node_base" = type { i32, ptr, ptr, ptr }
%"class.QuantLib::Date" = type { i64 }
%"class.std::vector.35" = type { %"struct.std::_Vector_base.36" }
%"struct.std::_Vector_base.36" = type { %"struct.std::_Vector_base<double, std::allocator<double>>::_Vector_impl" }
%"struct.std::_Vector_base<double, std::allocator<double>>::_Vector_impl" = type { %"struct.std::_Vector_base<double, std::allocator<double>>::_Vector_impl_data" }
%"struct.std::_Vector_base<double, std::allocator<double>>::_Vector_impl_data" = type { ptr, ptr, ptr }
%"class.std::map.18" = type { %"class.std::_Rb_tree.19" }
%"class.std::_Rb_tree.19" = type { %"struct.std::_Rb_tree<std::__cxx11::basic_string<char>, std::pair<const std::__cxx11::basic_string<char>, boost::any>, std::_Select1st<std::pair<const std::__cxx11::basic_string<char>, boost::any>>, std::less<std::__cxx11::basic_string<char>>>::_Rb_tree_impl" }
%"struct.std::_Rb_tree<std::__cxx11::basic_string<char>, std::pair<const std::__cxx11::basic_string<char>, boost::any>, std::_Select1st<std::pair<const std::__cxx11::basic_string<char>, boost::any>>, std::less<std::__cxx11::basic_string<char>>>::_Rb_tree_impl" = type { [8 x i8], %"struct.std::_Rb_tree_header" }
%"class.QuantLib::Null" = type { i8 }
%"class.QuantLib::YearOnYearInflationSwap::results" = type { %"class.QuantLib::Swap::results", double, double }
%"class.QuantLib::Swap::results" = type { %"class.QuantLib::Instrument::results", %"class.std::vector.35", %"class.std::vector.35", %"class.std::vector.35", %"class.std::vector.35", double }
%"class.QuantLib::Instrument::results" = type { %"class.QuantLib::PricingEngine::results", double, double, %"class.QuantLib::Date", %"class.std::map.18" }
%"class.QuantLib::PricingEngine::results" = type { ptr }

; Function Attrs: mustprogress nounwind uwtable
define linkonce_odr noundef float @_ZNSt14numeric_limitsIfE3maxEv() #1 comdat align 2 {
entry:
  ret float 0x47EFFFFFE0000000
}

; Function Attrs: mustprogress nounwind uwtable
define linkonce_odr noundef float @_ZN8QuantLib6detail17FloatingPointNullILb1EE9nullValueEv() #1 comdat align 2 {
entry:
  %call = call noundef float @_ZNSt14numeric_limitsIfE3maxEv() #15
  ret float %call
}

; Function Attrs: mustprogress uwtable
define linkonce_odr noundef double @_ZNK8QuantLib4NullIdEcvdEv(ptr noundef nonnull align 1 dereferenceable(1) %this) #2 comdat align 2 {
entry:
  %this.addr = alloca ptr, align 8
  store ptr %this, ptr %this.addr, align 8, !tbaa !3
  %call = call noundef float @_ZN8QuantLib6detail17FloatingPointNullILb1EE9nullValueEv()
  %conv = fpext float %call to double
  ret double %conv
}

; Function Attrs: mustprogress uwtable
define void @_ZN8QuantLib23YearOnYearInflationSwap7results5resetEv(ptr noundef nonnull align 8 dereferenceable(200) %this) unnamed_addr #2 align 2 {
entry:
  %this.addr = alloca ptr, align 8
  %ref.tmp = alloca %"class.QuantLib::Null", align 1
  %ref.tmp2 = alloca %"class.QuantLib::Null", align 1
  store ptr %this, ptr %this.addr, align 8, !tbaa !3
  %this1 = load ptr, ptr %this.addr, align 8
  call void @_ZN8QuantLib4Swap7results5resetEv(ptr noundef nonnull align 8 dereferenceable(184) %this1)
  call void @llvm.lifetime.start.p0(i64 1, ptr %ref.tmp) #15
  %call = call noundef double @_ZNK8QuantLib4NullIdEcvdEv(ptr noundef nonnull align 1 dereferenceable(1) %ref.tmp)
  %fairRate = getelementptr inbounds nuw %"class.QuantLib::YearOnYearInflationSwap::results", ptr %this1, i32 0, i32 1
  store double %call, ptr %fairRate, align 8, !tbaa !131
  call void @llvm.lifetime.end.p0(i64 1, ptr %ref.tmp) #15
  call void @llvm.lifetime.start.p0(i64 1, ptr %ref.tmp2) #15
  %call3 = call noundef double @_ZNK8QuantLib4NullIdEcvdEv(ptr noundef nonnull align 1 dereferenceable(1) %ref.tmp2)
  %fairSpread = getelementptr inbounds nuw %"class.QuantLib::YearOnYearInflationSwap::results", ptr %this1, i32 0, i32 2
  store double %call3, ptr %fairSpread, align 8, !tbaa !135
  call void @llvm.lifetime.end.p0(i64 1, ptr %ref.tmp2) #15
  ret void
}

; Function Attrs: uwtable
define void @_ZTv0_n32_N8QuantLib23YearOnYearInflationSwap7results5resetEv(ptr noundef %this) unnamed_addr #7 align 2 {
entry:
  %this.addr = alloca ptr, align 8
  store ptr %this, ptr %this.addr, align 8, !tbaa !3
  %this1 = load ptr, ptr %this.addr, align 8
  %vtable = load ptr, ptr %this1, align 8, !tbaa !20
  %0 = getelementptr inbounds i8, ptr %vtable, i64 -32
  %1 = load i64, ptr %0, align 8
  %2 = getelementptr inbounds i8, ptr %this1, i64 %1
  tail call void @_ZN8QuantLib23YearOnYearInflationSwap7results5resetEv(ptr noundef nonnull align 8 dereferenceable(200) %2)
  ret void
}